(dp0
S'b33966f0-66dc-11e5-8b46-e0b9a5f8b710'
p1
(ivisit
VisitSetup
p2
(dp3
S'visitmargin'
p4
I2
sS'uid'
p5
g1
sS'visitwindow'
p6
I10
sS'visitlabel'
p7
S'V1'
p8
sS'rank'
p9
I2
sS'actions'
p10
NsS'previousvisit'
p11
S'V0'
p12
sbsS'b32cbcc0-66dc-11e5-8d68-e0b9a5f8b710'
p13
(ivisit
VisitSetup
p14
(dp15
g4
Nsg5
g13
sg6
Nsg7
g12
sg9
I1
sg10
Nsg11
NsbsS'b33966f1-66dc-11e5-83c1-e0b9a5f8b710'
p16
(ivisit
VisitSetup
p17
(dp18
g4
I10
sg5
g16
sg6
I20
sg7
S'V2'
p19
sg9
I3
sg10
Nsg11
g8
sbs.